; ModuleID = 'source-C-CXX/20/690.c'
source_filename = "source-C-CXX/20/690.c"
target datalayout = "e-m:e-p270:32:32-p271:32:32-p272:64:64-i64:64-f80:128-n8:16:32:64-S128"
target triple = "x86_64-pc-linux-gnu"

@.str = private unnamed_addr constant [3 x i8] c"%d\00", align 1
@.str.1 = private unnamed_addr constant [6 x i8] c"%d,%d\00", align 1

; Function Attrs: nofree nounwind sspstrong uwtable
define dso_local void @main() local_unnamed_addr #0 {
  %1 = alloca i32, align 4
  %2 = alloca [300 x i32], align 16
  %3 = bitcast i32* %1 to i8*
  call void @llvm.lifetime.start.p0i8(i64 4, i8* nonnull %3) #4
  %4 = bitcast [300 x i32]* %2 to i8*
  call void @llvm.lifetime.start.p0i8(i64 1200, i8* nonnull %4) #4
  %5 = call i32 (i8*, ...) @__isoc99_scanf(i8* getelementptr inbounds ([3 x i8], [3 x i8]* @.str, i64 0, i64 0), i32* nonnull %1)
  %6 = load i32, i32* %1, align 4, !tbaa !5
  %7 = icmp sgt i32 %6, 0
  br i1 %7, label %97, label %113

8:                                                ; preds = %97
  %9 = icmp sgt i32 %102, 0
  br i1 %9, label %10, label %113

10:                                               ; preds = %8
  %11 = zext i32 %102 to i64
  %12 = icmp ult i32 %102, 8
  br i1 %12, label %94, label %13

13:                                               ; preds = %10
  %14 = and i64 %11, 4294967288
  %15 = add nsw i64 %14, -8
  %16 = lshr exact i64 %15, 3
  %17 = add nuw nsw i64 %16, 1
  %18 = and i64 %17, 3
  %19 = icmp ult i64 %15, 24
  br i1 %19, label %65, label %20

20:                                               ; preds = %13
  %21 = and i64 %17, 4611686018427387900
  br label %22

22:                                               ; preds = %22, %20
  %23 = phi i64 [ 0, %20 ], [ %62, %22 ]
  %24 = phi <4 x i32> [ zeroinitializer, %20 ], [ %60, %22 ]
  %25 = phi <4 x i32> [ zeroinitializer, %20 ], [ %61, %22 ]
  %26 = phi i64 [ %21, %20 ], [ %63, %22 ]
  %27 = getelementptr inbounds [300 x i32], [300 x i32]* %2, i64 0, i64 %23
  %28 = bitcast i32* %27 to <4 x i32>*
  %29 = load <4 x i32>, <4 x i32>* %28, align 16, !tbaa !5
  %30 = getelementptr inbounds i32, i32* %27, i64 4
  %31 = bitcast i32* %30 to <4 x i32>*
  %32 = load <4 x i32>, <4 x i32>* %31, align 16, !tbaa !5
  %33 = add <4 x i32> %29, %24
  %34 = add <4 x i32> %32, %25
  %35 = or i64 %23, 8
  %36 = getelementptr inbounds [300 x i32], [300 x i32]* %2, i64 0, i64 %35
  %37 = bitcast i32* %36 to <4 x i32>*
  %38 = load <4 x i32>, <4 x i32>* %37, align 16, !tbaa !5
  %39 = getelementptr inbounds i32, i32* %36, i64 4
  %40 = bitcast i32* %39 to <4 x i32>*
  %41 = load <4 x i32>, <4 x i32>* %40, align 16, !tbaa !5
  %42 = add <4 x i32> %38, %33
  %43 = add <4 x i32> %41, %34
  %44 = or i64 %23, 16
  %45 = getelementptr inbounds [300 x i32], [300 x i32]* %2, i64 0, i64 %44
  %46 = bitcast i32* %45 to <4 x i32>*
  %47 = load <4 x i32>, <4 x i32>* %46, align 16, !tbaa !5
  %48 = getelementptr inbounds i32, i32* %45, i64 4
  %49 = bitcast i32* %48 to <4 x i32>*
  %50 = load <4 x i32>, <4 x i32>* %49, align 16, !tbaa !5
  %51 = add <4 x i32> %47, %42
  %52 = add <4 x i32> %50, %43
  %53 = or i64 %23, 24
  %54 = getelementptr inbounds [300 x i32], [300 x i32]* %2, i64 0, i64 %53
  %55 = bitcast i32* %54 to <4 x i32>*
  %56 = load <4 x i32>, <4 x i32>* %55, align 16, !tbaa !5
  %57 = getelementptr inbounds i32, i32* %54, i64 4
  %58 = bitcast i32* %57 to <4 x i32>*
  %59 = load <4 x i32>, <4 x i32>* %58, align 16, !tbaa !5
  %60 = add <4 x i32> %56, %51
  %61 = add <4 x i32> %59, %52
  %62 = add nuw i64 %23, 32
  %63 = add i64 %26, -4
  %64 = icmp eq i64 %63, 0
  br i1 %64, label %65, label %22, !llvm.loop !9

65:                                               ; preds = %22, %13
  %66 = phi <4 x i32> [ undef, %13 ], [ %60, %22 ]
  %67 = phi <4 x i32> [ undef, %13 ], [ %61, %22 ]
  %68 = phi i64 [ 0, %13 ], [ %62, %22 ]
  %69 = phi <4 x i32> [ zeroinitializer, %13 ], [ %60, %22 ]
  %70 = phi <4 x i32> [ zeroinitializer, %13 ], [ %61, %22 ]
  %71 = icmp eq i64 %18, 0
  br i1 %71, label %88, label %72

72:                                               ; preds = %65, %72
  %73 = phi i64 [ %85, %72 ], [ %68, %65 ]
  %74 = phi <4 x i32> [ %83, %72 ], [ %69, %65 ]
  %75 = phi <4 x i32> [ %84, %72 ], [ %70, %65 ]
  %76 = phi i64 [ %86, %72 ], [ %18, %65 ]
  %77 = getelementptr inbounds [300 x i32], [300 x i32]* %2, i64 0, i64 %73
  %78 = bitcast i32* %77 to <4 x i32>*
  %79 = load <4 x i32>, <4 x i32>* %78, align 16, !tbaa !5
  %80 = getelementptr inbounds i32, i32* %77, i64 4
  %81 = bitcast i32* %80 to <4 x i32>*
  %82 = load <4 x i32>, <4 x i32>* %81, align 16, !tbaa !5
  %83 = add <4 x i32> %79, %74
  %84 = add <4 x i32> %82, %75
  %85 = add nuw i64 %73, 8
  %86 = add i64 %76, -1
  %87 = icmp eq i64 %86, 0
  br i1 %87, label %88, label %72, !llvm.loop !12

88:                                               ; preds = %72, %65
  %89 = phi <4 x i32> [ %66, %65 ], [ %83, %72 ]
  %90 = phi <4 x i32> [ %67, %65 ], [ %84, %72 ]
  %91 = add <4 x i32> %90, %89
  %92 = call i32 @llvm.vector.reduce.add.v4i32(<4 x i32> %91)
  %93 = icmp eq i64 %14, %11
  br i1 %93, label %118, label %94

94:                                               ; preds = %10, %88
  %95 = phi i64 [ 0, %10 ], [ %14, %88 ]
  %96 = phi i32 [ 0, %10 ], [ %92, %88 ]
  br label %105

97:                                               ; preds = %0, %97
  %98 = phi i64 [ %101, %97 ], [ 0, %0 ]
  %99 = getelementptr inbounds [300 x i32], [300 x i32]* %2, i64 0, i64 %98
  %100 = call i32 (i8*, ...) @__isoc99_scanf(i8* getelementptr inbounds ([3 x i8], [3 x i8]* @.str, i64 0, i64 0), i32* nonnull %99)
  %101 = add nuw nsw i64 %98, 1
  %102 = load i32, i32* %1, align 4, !tbaa !5
  %103 = sext i32 %102 to i64
  %104 = icmp slt i64 %101, %103
  br i1 %104, label %97, label %8, !llvm.loop !14

105:                                              ; preds = %94, %105
  %106 = phi i64 [ %111, %105 ], [ %95, %94 ]
  %107 = phi i32 [ %110, %105 ], [ %96, %94 ]
  %108 = getelementptr inbounds [300 x i32], [300 x i32]* %2, i64 0, i64 %106
  %109 = load i32, i32* %108, align 4, !tbaa !5
  %110 = add nsw i32 %109, %107
  %111 = add nuw nsw i64 %106, 1
  %112 = icmp eq i64 %111, %11
  br i1 %112, label %118, label %105, !llvm.loop !15

113:                                              ; preds = %8, %0
  %114 = phi i32 [ %102, %8 ], [ %6, %0 ]
  %115 = sitofp i32 %114 to float
  %116 = fdiv float 0.000000e+00, %115
  %117 = add i32 %114, -1
  br label %170

118:                                              ; preds = %105, %88
  %119 = phi i32 [ %92, %88 ], [ %110, %105 ]
  %120 = sitofp i32 %119 to float
  %121 = sitofp i32 %102 to float
  %122 = fdiv float %120, %121
  %123 = add i32 %102, -1
  %124 = icmp sgt i32 %102, 2
  br i1 %124, label %125, label %170

125:                                              ; preds = %118
  %126 = getelementptr inbounds [300 x i32], [300 x i32]* %2, i64 0, i64 0
  br label %127

127:                                              ; preds = %125, %166
  %128 = phi i32 [ 0, %125 ], [ %169, %166 ]
  %129 = phi i32 [ 1, %125 ], [ %167, %166 ]
  %130 = sub i32 %123, %128
  %131 = zext i32 %130 to i64
  %132 = icmp sgt i32 %102, %129
  br i1 %132, label %133, label %166

133:                                              ; preds = %127
  %134 = load i32, i32* %126, align 16, !tbaa !5
  %135 = and i64 %131, 1
  %136 = icmp eq i32 %130, 1
  br i1 %136, label %155, label %137

137:                                              ; preds = %133
  %138 = and i64 %131, 4294967294
  br label %139

139:                                              ; preds = %194, %137
  %140 = phi i32 [ %134, %137 ], [ %195, %194 ]
  %141 = phi i64 [ 0, %137 ], [ %151, %194 ]
  %142 = phi i64 [ %138, %137 ], [ %196, %194 ]
  %143 = or i64 %141, 1
  %144 = getelementptr inbounds [300 x i32], [300 x i32]* %2, i64 0, i64 %143
  %145 = load i32, i32* %144, align 4, !tbaa !5
  %146 = icmp sgt i32 %140, %145
  br i1 %146, label %147, label %149

147:                                              ; preds = %139
  %148 = getelementptr inbounds [300 x i32], [300 x i32]* %2, i64 0, i64 %141
  store i32 %145, i32* %148, align 8, !tbaa !5
  store i32 %140, i32* %144, align 4, !tbaa !5
  br label %149

149:                                              ; preds = %139, %147
  %150 = phi i32 [ %145, %139 ], [ %140, %147 ]
  %151 = add nuw nsw i64 %141, 2
  %152 = getelementptr inbounds [300 x i32], [300 x i32]* %2, i64 0, i64 %151
  %153 = load i32, i32* %152, align 8, !tbaa !5
  %154 = icmp sgt i32 %150, %153
  br i1 %154, label %192, label %194

155:                                              ; preds = %194, %133
  %156 = phi i32 [ %134, %133 ], [ %195, %194 ]
  %157 = phi i64 [ 0, %133 ], [ %151, %194 ]
  %158 = icmp eq i64 %135, 0
  br i1 %158, label %166, label %159

159:                                              ; preds = %155
  %160 = add nuw nsw i64 %157, 1
  %161 = getelementptr inbounds [300 x i32], [300 x i32]* %2, i64 0, i64 %160
  %162 = load i32, i32* %161, align 4, !tbaa !5
  %163 = icmp sgt i32 %156, %162
  br i1 %163, label %164, label %166

164:                                              ; preds = %159
  %165 = getelementptr inbounds [300 x i32], [300 x i32]* %2, i64 0, i64 %157
  store i32 %162, i32* %165, align 4, !tbaa !5
  store i32 %156, i32* %161, align 4, !tbaa !5
  br label %166

166:                                              ; preds = %155, %159, %164, %127
  %167 = add nuw nsw i32 %129, 1
  %168 = icmp eq i32 %167, %123
  %169 = add i32 %128, 1
  br i1 %168, label %170, label %127, !llvm.loop !17

170:                                              ; preds = %166, %113, %118
  %171 = phi i32 [ %117, %113 ], [ %123, %118 ], [ %123, %166 ]
  %172 = phi float [ %116, %113 ], [ %122, %118 ], [ %122, %166 ]
  %173 = getelementptr inbounds [300 x i32], [300 x i32]* %2, i64 0, i64 0
  %174 = load i32, i32* %173, align 16, !tbaa !5
  %175 = sitofp i32 %174 to float
  %176 = fsub float %172, %175
  %177 = sext i32 %171 to i64
  %178 = getelementptr inbounds [300 x i32], [300 x i32]* %2, i64 0, i64 %177
  %179 = load i32, i32* %178, align 4, !tbaa !5
  %180 = sitofp i32 %179 to float
  %181 = fsub float %180, %172
  %182 = fcmp ogt float %176, %181
  br i1 %182, label %183, label %185

183:                                              ; preds = %170
  %184 = call i32 (i8*, ...) @printf(i8* nonnull dereferenceable(1) getelementptr inbounds ([3 x i8], [3 x i8]* @.str, i64 0, i64 0), i32 %174)
  br label %191

185:                                              ; preds = %170
  %186 = fcmp olt float %176, %181
  br i1 %186, label %187, label %189

187:                                              ; preds = %185
  %188 = call i32 (i8*, ...) @printf(i8* nonnull dereferenceable(1) getelementptr inbounds ([3 x i8], [3 x i8]* @.str, i64 0, i64 0), i32 %179)
  br label %191

189:                                              ; preds = %185
  %190 = call i32 (i8*, ...) @printf(i8* nonnull dereferenceable(1) getelementptr inbounds ([6 x i8], [6 x i8]* @.str.1, i64 0, i64 0), i32 %174, i32 %179)
  br label %191

191:                                              ; preds = %187, %189, %183
  call void @llvm.lifetime.end.p0i8(i64 1200, i8* nonnull %4) #4
  call void @llvm.lifetime.end.p0i8(i64 4, i8* nonnull %3) #4
  ret void

192:                                              ; preds = %149
  %193 = getelementptr inbounds [300 x i32], [300 x i32]* %2, i64 0, i64 %143
  store i32 %153, i32* %193, align 4, !tbaa !5
  store i32 %150, i32* %152, align 8, !tbaa !5
  br label %194

194:                                              ; preds = %192, %149
  %195 = phi i32 [ %153, %149 ], [ %150, %192 ]
  %196 = add i64 %142, -2
  %197 = icmp eq i64 %196, 0
  br i1 %197, label %155, label %139, !llvm.loop !18
}

; Function Attrs: argmemonly mustprogress nofree nosync nounwind willreturn
declare void @llvm.lifetime.start.p0i8(i64 immarg, i8* nocapture) #1

; Function Attrs: nofree nounwind
declare noundef i32 @__isoc99_scanf(i8* nocapture noundef readonly, ...) local_unnamed_addr #2

; Function Attrs: nofree nounwind
declare noundef i32 @printf(i8* nocapture noundef readonly, ...) local_unnamed_addr #2

; Function Attrs: argmemonly mustprogress nofree nosync nounwind willreturn
declare void @llvm.lifetime.end.p0i8(i64 immarg, i8* nocapture) #1

; Function Attrs: nofree nosync nounwind readnone willreturn
declare i32 @llvm.vector.reduce.add.v4i32(<4 x i32>) #3


!llvm.module.flags = !{!0, !1, !2, !3}
!llvm.ident = !{!4}

!0 = !{i32 1, !"wchar_size", i32 4}
!1 = !{i32 7, !"PIC Level", i32 2}
!2 = !{i32 7, !"PIE Level", i32 2}
!3 = !{i32 7, !"uwtable", i32 1}
!4 = !{!"clang version 13.0.0"}
!5 = !{!6, !6, i64 0}
!6 = !{!"int", !7, i64 0}
!7 = !{!"omnipotent char", !8, i64 0}
!8 = !{!"Simple C/C++ TBAA"}
!9 = distinct !{!9, !10, !11}
!10 = !{!"llvm.loop.mustprogress"}
!11 = !{!"llvm.loop.isvectorized", i32 1}
!12 = distinct !{!12, !13}
!13 = !{!"llvm.loop.unroll.disable"}
!14 = distinct !{!14, !10}
!15 = distinct !{!15, !10, !16, !11}
!16 = !{!"llvm.loop.unroll.runtime.disable"}
!17 = distinct !{!17, !10}
!18 = distinct !{!18, !10}
